target datalayout = "e-m:e-p270:32:32-p271:32:32-p272:64:64-i64:64-i128:128-f80:128-n8:16:32:64-S128"
target triple = "x86_64-pc-linux-gnu"

%struct.ForEachState = type { ptr, i32 }
%union.ListCell = type { ptr }
%struct.List = type { i32, i32, i32, ptr, [0 x %union.ListCell] }
%struct.RangeTblRef = type { i32, i32 }
%struct.FromExpr = type { i32, ptr, ptr }
%struct.Node = type { i32 }
%struct.JoinExpr = type { i32, i32, i8, ptr, ptr, ptr, ptr, ptr, ptr, i32 }
%struct.nullingrel_info = type { ptr, i32 }

@.str.2 = private unnamed_addr constant [15 x i8] c"prepjointree.c\00", align 1
@.str.5 = private unnamed_addr constant [27 x i8] c"unrecognized node type: %d\00", align 1
@.str.7 = private unnamed_addr constant [27 x i8] c"unrecognized join type: %d\00", align 1
@__func__.get_nullingrels_recurse = private unnamed_addr constant [24 x i8] c"get_nullingrels_recurse\00", align 1

; Function Attrs: nounwind uwtable
define internal void @get_nullingrels_recurse(ptr noundef %0, ptr noundef %1, ptr noundef %2) #0 {
  %4 = alloca ptr, align 8
  %5 = alloca ptr, align 8
  %6 = alloca ptr, align 8
  %7 = alloca i32, align 4
  %8 = alloca ptr, align 8
  %9 = alloca ptr, align 8
  %10 = alloca %struct.ForEachState, align 8
  %11 = alloca ptr, align 8
  %12 = alloca ptr, align 8
  store ptr %0, ptr %4, align 8
  store ptr %1, ptr %5, align 8
  store ptr %2, ptr %6, align 8
  %13 = load ptr, ptr %4, align 8
  %14 = icmp eq ptr %13, null
  br i1 %14, label %15, label %16

15:                                               ; preds = %3
  br label %183

16:                                               ; preds = %3
  %17 = load ptr, ptr %4, align 8
  %18 = getelementptr inbounds nuw %struct.Node, ptr %17, i32 0, i32 0
  %19 = load i32, ptr %18, align 4
  %20 = icmp eq i32 %19, 63
  br i1 %20, label %21, label %32

21:                                               ; preds = %16
  call void @llvm.lifetime.start.p0(i64 4, ptr %7) #8
  %22 = load ptr, ptr %4, align 8
  %23 = getelementptr inbounds nuw %struct.RangeTblRef, ptr %22, i32 0, i32 1
  %24 = load i32, ptr %23, align 4
  store i32 %24, ptr %7, align 4
  %25 = load ptr, ptr %5, align 8
  %26 = load ptr, ptr %6, align 8
  %27 = getelementptr inbounds nuw %struct.nullingrel_info, ptr %26, i32 0, i32 0
  %28 = load ptr, ptr %27, align 8
  %29 = load i32, ptr %7, align 4
  %30 = sext i32 %29 to i64
  %31 = getelementptr inbounds ptr, ptr %28, i64 %30
  store ptr %25, ptr %31, align 8
  call void @llvm.lifetime.end.p0(i64 4, ptr %7) #8
  br label %183

32:                                               ; preds = %16
  %33 = load ptr, ptr %4, align 8
  %34 = getelementptr inbounds nuw %struct.Node, ptr %33, i32 0, i32 0
  %35 = load i32, ptr %34, align 4
  %36 = icmp eq i32 %35, 65
  br i1 %36, label %37, label %81

37:                                               ; preds = %32
  call void @llvm.lifetime.start.p0(i64 8, ptr %8) #8
  %38 = load ptr, ptr %4, align 8
  store ptr %38, ptr %8, align 8
  call void @llvm.lifetime.start.p0(i64 8, ptr %9) #8
  call void @llvm.lifetime.start.p0(i64 16, ptr %10) #8
  %39 = getelementptr inbounds nuw %struct.ForEachState, ptr %10, i32 0, i32 0
  %40 = load ptr, ptr %8, align 8
  %41 = getelementptr inbounds nuw %struct.FromExpr, ptr %40, i32 0, i32 1
  %42 = load ptr, ptr %41, align 8
  store ptr %42, ptr %39, align 8
  %43 = getelementptr inbounds nuw %struct.ForEachState, ptr %10, i32 0, i32 1
  store i32 0, ptr %43, align 8
  %44 = getelementptr i8, ptr %10, i64 12
  call void @llvm.memset.p0.i64(ptr align 4 %44, i8 0, i64 4, i1 false)
  br label %45

45:                                               ; preds = %76, %37
  %46 = getelementptr inbounds nuw %struct.ForEachState, ptr %10, i32 0, i32 0
  %47 = load ptr, ptr %46, align 8
  %48 = icmp ne ptr %47, null
  br i1 %48, label %49, label %66

49:                                               ; preds = %45
  %50 = getelementptr inbounds nuw %struct.ForEachState, ptr %10, i32 0, i32 1
  %51 = load i32, ptr %50, align 8
  %52 = getelementptr inbounds nuw %struct.ForEachState, ptr %10, i32 0, i32 0
  %53 = load ptr, ptr %52, align 8
  %54 = getelementptr inbounds nuw %struct.List, ptr %53, i32 0, i32 1
  %55 = load i32, ptr %54, align 4
  %56 = icmp slt i32 %51, %55
  br i1 %56, label %57, label %66

57:                                               ; preds = %49
  %58 = getelementptr inbounds nuw %struct.ForEachState, ptr %10, i32 0, i32 0
  %59 = load ptr, ptr %58, align 8
  %60 = getelementptr inbounds nuw %struct.List, ptr %59, i32 0, i32 3
  %61 = load ptr, ptr %60, align 8
  %62 = getelementptr inbounds nuw %struct.ForEachState, ptr %10, i32 0, i32 1
  %63 = load i32, ptr %62, align 8
  %64 = sext i32 %63 to i64
  %65 = getelementptr inbounds %union.ListCell, ptr %61, i64 %64
  store ptr %65, ptr %9, align 8
  br label %67

66:                                               ; preds = %49, %45
  store ptr null, ptr %9, align 8
  br label %67

67:                                               ; preds = %66, %57
  %68 = phi i32 [ 1, %57 ], [ 0, %66 ]
  %69 = icmp ne i32 %68, 0
  br i1 %69, label %71, label %70

70:                                               ; preds = %67
  call void @llvm.lifetime.end.p0(i64 16, ptr %10) #8
  br label %80

71:                                               ; preds = %67
  %72 = load ptr, ptr %9, align 8
  %73 = load ptr, ptr %72, align 8
  %74 = load ptr, ptr %5, align 8
  %75 = load ptr, ptr %6, align 8
  call void @get_nullingrels_recurse(ptr noundef %73, ptr noundef %74, ptr noundef %75)
  br label %76

76:                                               ; preds = %71
  %77 = getelementptr inbounds nuw %struct.ForEachState, ptr %10, i32 0, i32 1
  %78 = load i32, ptr %77, align 8
  %79 = add i32 %78, 1
  store i32 %79, ptr %77, align 8
  br label %45, !llvm.loop !33

80:                                               ; preds = %70
  call void @llvm.lifetime.end.p0(i64 8, ptr %9) #8
  call void @llvm.lifetime.end.p0(i64 8, ptr %8) #8
  br label %182

81:                                               ; preds = %32
  %82 = load ptr, ptr %4, align 8
  %83 = getelementptr inbounds nuw %struct.Node, ptr %82, i32 0, i32 0
  %84 = load i32, ptr %83, align 4
  %85 = icmp eq i32 %84, 64
  br i1 %85, label %86, label %168

86:                                               ; preds = %81
  call void @llvm.lifetime.start.p0(i64 8, ptr %11) #8
  %87 = load ptr, ptr %4, align 8
  store ptr %87, ptr %11, align 8
  call void @llvm.lifetime.start.p0(i64 8, ptr %12) #8
  %88 = load ptr, ptr %11, align 8
  %89 = getelementptr inbounds nuw %struct.JoinExpr, ptr %88, i32 0, i32 1
  %90 = load i32, ptr %89, align 4
  switch i32 %90, label %153 [
    i32 0, label %91
    i32 1, label %102
    i32 4, label %102
    i32 5, label %102
    i32 2, label %119
    i32 3, label %136
  ]

91:                                               ; preds = %86
  %92 = load ptr, ptr %11, align 8
  %93 = getelementptr inbounds nuw %struct.JoinExpr, ptr %92, i32 0, i32 3
  %94 = load ptr, ptr %93, align 8
  %95 = load ptr, ptr %5, align 8
  %96 = load ptr, ptr %6, align 8
  call void @get_nullingrels_recurse(ptr noundef %94, ptr noundef %95, ptr noundef %96)
  %97 = load ptr, ptr %11, align 8
  %98 = getelementptr inbounds nuw %struct.JoinExpr, ptr %97, i32 0, i32 4
  %99 = load ptr, ptr %98, align 8
  %100 = load ptr, ptr %5, align 8
  %101 = load ptr, ptr %6, align 8
  call void @get_nullingrels_recurse(ptr noundef %99, ptr noundef %100, ptr noundef %101)
  br label %167

102:                                              ; preds = %86, %86, %86
  %103 = load ptr, ptr %5, align 8
  %104 = call ptr @bms_copy(ptr noundef %103)
  %105 = load ptr, ptr %11, align 8
  %106 = getelementptr inbounds nuw %struct.JoinExpr, ptr %105, i32 0, i32 9
  %107 = load i32, ptr %106, align 8
  %108 = call ptr @bms_add_member(ptr noundef %104, i32 noundef %107)
  store ptr %108, ptr %12, align 8
  %109 = load ptr, ptr %11, align 8
  %110 = getelementptr inbounds nuw %struct.JoinExpr, ptr %109, i32 0, i32 3
  %111 = load ptr, ptr %110, align 8
  %112 = load ptr, ptr %5, align 8
  %113 = load ptr, ptr %6, align 8
  call void @get_nullingrels_recurse(ptr noundef %111, ptr noundef %112, ptr noundef %113)
  %114 = load ptr, ptr %11, align 8
  %115 = getelementptr inbounds nuw %struct.JoinExpr, ptr %114, i32 0, i32 4
  %116 = load ptr, ptr %115, align 8
  %117 = load ptr, ptr %12, align 8
  %118 = load ptr, ptr %6, align 8
  call void @get_nullingrels_recurse(ptr noundef %116, ptr noundef %117, ptr noundef %118)
  br label %167

119:                                              ; preds = %86
  %120 = load ptr, ptr %5, align 8
  %121 = call ptr @bms_copy(ptr noundef %120)
  %122 = load ptr, ptr %11, align 8
  %123 = getelementptr inbounds nuw %struct.JoinExpr, ptr %122, i32 0, i32 9
  %124 = load i32, ptr %123, align 8
  %125 = call ptr @bms_add_member(ptr noundef %121, i32 noundef %124)
  store ptr %125, ptr %12, align 8
  %126 = load ptr, ptr %11, align 8
  %127 = getelementptr inbounds nuw %struct.JoinExpr, ptr %126, i32 0, i32 3
  %128 = load ptr, ptr %127, align 8
  %129 = load ptr, ptr %12, align 8
  %130 = load ptr, ptr %6, align 8
  call void @get_nullingrels_recurse(ptr noundef %128, ptr noundef %129, ptr noundef %130)
  %131 = load ptr, ptr %11, align 8
  %132 = getelementptr inbounds nuw %struct.JoinExpr, ptr %131, i32 0, i32 4
  %133 = load ptr, ptr %132, align 8
  %134 = load ptr, ptr %12, align 8
  %135 = load ptr, ptr %6, align 8
  call void @get_nullingrels_recurse(ptr noundef %133, ptr noundef %134, ptr noundef %135)
  br label %167

136:                                              ; preds = %86
  %137 = load ptr, ptr %5, align 8
  %138 = call ptr @bms_copy(ptr noundef %137)
  %139 = load ptr, ptr %11, align 8
  %140 = getelementptr inbounds nuw %struct.JoinExpr, ptr %139, i32 0, i32 9
  %141 = load i32, ptr %140, align 8
  %142 = call ptr @bms_add_member(ptr noundef %138, i32 noundef %141)
  store ptr %142, ptr %12, align 8
  %143 = load ptr, ptr %11, align 8
  %144 = getelementptr inbounds nuw %struct.JoinExpr, ptr %143, i32 0, i32 3
  %145 = load ptr, ptr %144, align 8
  %146 = load ptr, ptr %12, align 8
  %147 = load ptr, ptr %6, align 8
  call void @get_nullingrels_recurse(ptr noundef %145, ptr noundef %146, ptr noundef %147)
  %148 = load ptr, ptr %11, align 8
  %149 = getelementptr inbounds nuw %struct.JoinExpr, ptr %148, i32 0, i32 4
  %150 = load ptr, ptr %149, align 8
  %151 = load ptr, ptr %5, align 8
  %152 = load ptr, ptr %6, align 8
  call void @get_nullingrels_recurse(ptr noundef %150, ptr noundef %151, ptr noundef %152)
  br label %167

153:                                              ; preds = %86
  br label %154

154:                                              ; preds = %153
  br i1 true, label %155, label %157

155:                                              ; preds = %154
  %156 = call zeroext i1 @errstart_cold(i32 noundef 21, ptr noundef null) #9
  br i1 %156, label %159, label %164

157:                                              ; preds = %154
  %158 = call zeroext i1 @errstart(i32 noundef 21, ptr noundef null)
  br i1 %158, label %159, label %164

159:                                              ; preds = %157, %155
  %160 = load ptr, ptr %11, align 8
  %161 = getelementptr inbounds nuw %struct.JoinExpr, ptr %160, i32 0, i32 1
  %162 = load i32, ptr %161, align 4
  %163 = call i32 (ptr, ...) @errmsg_internal(ptr noundef @.str.7, i32 noundef %162)
  call void @errfinish(ptr noundef @.str.2, i32 noundef 4331, ptr noundef @__func__.get_nullingrels_recurse)
  br label %164

164:                                              ; preds = %159, %157, %155
  unreachable

165:                                              ; No predecessors!
  br label %166

166:                                              ; preds = %165
  br label %167

167:                                              ; preds = %166, %136, %119, %102, %91
  call void @llvm.lifetime.end.p0(i64 8, ptr %12) #8
  call void @llvm.lifetime.end.p0(i64 8, ptr %11) #8
  br label %181

168:                                              ; preds = %81
  br label %169

169:                                              ; preds = %168
  br i1 true, label %170, label %172

170:                                              ; preds = %169
  %171 = call zeroext i1 @errstart_cold(i32 noundef 21, ptr noundef null) #9
  br i1 %171, label %174, label %179

172:                                              ; preds = %169
  %173 = call zeroext i1 @errstart(i32 noundef 21, ptr noundef null)
  br i1 %173, label %174, label %179

174:                                              ; preds = %172, %170
  %175 = load ptr, ptr %4, align 8
  %176 = getelementptr inbounds nuw %struct.Node, ptr %175, i32 0, i32 0
  %177 = load i32, ptr %176, align 4
  %178 = call i32 (ptr, ...) @errmsg_internal(ptr noundef @.str.5, i32 noundef %177)
  call void @errfinish(ptr noundef @.str.2, i32 noundef 4337, ptr noundef @__func__.get_nullingrels_recurse)
  br label %179

179:                                              ; preds = %174, %172, %170
  unreachable

180:                                              ; No predecessors!
  br label %181

181:                                              ; preds = %180, %167
  br label %182

182:                                              ; preds = %181, %80
  br label %183

183:                                              ; preds = %15, %182, %21
  ret void
}