; Function Attrs: nounwind uwtable
define internal fastcc void @get_nullingrels_recurse(ptr noundef readonly captures(address_is_null) %0, ptr noundef %1, ptr noundef %2) unnamed_addr #0 {
  %4 = icmp eq ptr %0, null
  br i1 %4, label %.thread, label %.lr.ph

.lr.ph:                                           ; preds = %3, %tailrecurse.outer.backedge
  %.tr56.ph73 = phi ptr [ %.tr56.ph.be, %tailrecurse.outer.backedge ], [ %1, %3 ]
  %.tr.ph72 = phi ptr [ %.tr.ph.be, %tailrecurse.outer.backedge ], [ %0, %3 ]
  br label %5

5:                                                ; preds = %.lr.ph, %tailrecurse.backedge
  %.tr71 = phi ptr [ %.tr.ph72, %.lr.ph ], [ %.tr.be, %tailrecurse.backedge ]
  %6 = load i32, ptr %.tr71, align 4
  switch i32 %6, label %55 [
    i32 63, label %7
    i32 65, label %13
    i32 64, label %26
  ]

7:                                                ; preds = %5
  %8 = getelementptr inbounds nuw i8, ptr %.tr71, i64 4
  %9 = load i32, ptr %8, align 4
  %10 = load ptr, ptr %2, align 8
  %11 = sext i32 %9 to i64
  %12 = getelementptr inbounds ptr, ptr %10, i64 %11
  store ptr %.tr56.ph73, ptr %12, align 8
  br label %.thread

13:                                               ; preds = %5
  %14 = getelementptr inbounds nuw i8, ptr %.tr71, i64 8
  %15 = load ptr, ptr %14, align 8
  %16 = getelementptr inbounds nuw i8, ptr %15, i64 4
  %.not = icmp eq ptr %15, null
  br i1 %.not, label %.thread, label %.lr.ph75

.lr.ph75:                                         ; preds = %13
  %17 = getelementptr inbounds nuw i8, ptr %15, i64 16
  %18 = load i32, ptr %16, align 4
  %19 = icmp sgt i32 %18, 0
  br i1 %19, label %.lr.ph78, label %.thread

.lr.ph78:                                         ; preds = %.lr.ph75, %.lr.ph78
  %indvars.iv = phi i64 [ %indvars.iv.next, %.lr.ph78 ], [ 0, %.lr.ph75 ]
  %20 = load ptr, ptr %17, align 8
  %21 = getelementptr inbounds nuw %union.ListCell, ptr %20, i64 %indvars.iv
  %22 = load ptr, ptr %21, align 8
  tail call fastcc void @get_nullingrels_recurse(ptr noundef %22, ptr noundef %.tr56.ph73, ptr noundef %2)
  %indvars.iv.next = add nuw nsw i64 %indvars.iv, 1
  %23 = load i32, ptr %16, align 4
  %24 = sext i32 %23 to i64
  %25 = icmp slt i64 %indvars.iv.next, %24
  br i1 %25, label %.lr.ph78, label %.thread

26:                                               ; preds = %5
  %27 = getelementptr inbounds nuw i8, ptr %.tr71, i64 4
  %28 = load i32, ptr %27, align 4
  switch i32 %28, label %50 [
    i32 0, label %tailrecurse.backedge
    i32 1, label %32
    i32 4, label %32
    i32 5, label %32
    i32 2, label %40
    i32 3, label %45
  ]

tailrecurse.backedge:                             ; preds = %26, %45
  %.tr56.ph73.sink = phi ptr [ %49, %45 ], [ %.tr56.ph73, %26 ]
  %29 = getelementptr inbounds nuw i8, ptr %.tr71, i64 16
  %30 = load ptr, ptr %29, align 8
  tail call fastcc void @get_nullingrels_recurse(ptr noundef %30, ptr noundef %.tr56.ph73.sink, ptr noundef %2)
  %.tr.be.in = getelementptr inbounds nuw i8, ptr %.tr71, i64 24
  %.tr.be = load ptr, ptr %.tr.be.in, align 8
  %31 = icmp eq ptr %.tr.be, null
  br i1 %31, label %.thread, label %5

32:                                               ; preds = %26, %26, %26
  %33 = tail call ptr @bms_copy(ptr noundef %.tr56.ph73) #7
  %34 = getelementptr inbounds nuw i8, ptr %.tr71, i64 64
  %35 = load i32, ptr %34, align 8
  %36 = tail call ptr @bms_add_member(ptr noundef %33, i32 noundef %35) #7
  br label %tailrecurse.outer.backedge

tailrecurse.outer.backedge:                       ; preds = %32, %40
  %.tr56.ph73.sink113 = phi ptr [ %.tr56.ph73, %32 ], [ %44, %40 ]
  %.tr56.ph.be = phi ptr [ %36, %32 ], [ %44, %40 ]
  %37 = getelementptr inbounds nuw i8, ptr %.tr71, i64 16
  %38 = load ptr, ptr %37, align 8
  tail call fastcc void @get_nullingrels_recurse(ptr noundef %38, ptr noundef %.tr56.ph73.sink113, ptr noundef %2)
  %.tr.ph.be.in = getelementptr inbounds nuw i8, ptr %.tr71, i64 24
  %.tr.ph.be = load ptr, ptr %.tr.ph.be.in, align 8
  %39 = icmp eq ptr %.tr.ph.be, null
  br i1 %39, label %.thread, label %.lr.ph

40:                                               ; preds = %26
  %41 = tail call ptr @bms_copy(ptr noundef %.tr56.ph73) #7
  %42 = getelementptr inbounds nuw i8, ptr %.tr71, i64 64
  %43 = load i32, ptr %42, align 8
  %44 = tail call ptr @bms_add_member(ptr noundef %41, i32 noundef %43) #7
  br label %tailrecurse.outer.backedge

45:                                               ; preds = %26
  %46 = tail call ptr @bms_copy(ptr noundef %.tr56.ph73) #7
  %47 = getelementptr inbounds nuw i8, ptr %.tr71, i64 64
  %48 = load i32, ptr %47, align 8
  %49 = tail call ptr @bms_add_member(ptr noundef %46, i32 noundef %48) #7
  br label %tailrecurse.backedge

50:                                               ; preds = %26
  %51 = getelementptr inbounds nuw i8, ptr %.tr71, i64 4
  %52 = tail call zeroext i1 @errstart_cold(i32 noundef 21, ptr noundef null) #8
  tail call void @llvm.assume(i1 %52)
  %53 = load i32, ptr %51, align 4
  %54 = tail call i32 (ptr, ...) @errmsg_internal(ptr noundef nonnull @.str.7, i32 noundef %53) #7
  tail call void @errfinish(ptr noundef nonnull @.str.2, i32 noundef 4331, ptr noundef nonnull @__func__.get_nullingrels_recurse) #7
  unreachable

55:                                               ; preds = %5
  %56 = tail call zeroext i1 @errstart_cold(i32 noundef 21, ptr noundef null) #8
  tail call void @llvm.assume(i1 %56)
  %57 = load i32, ptr %.tr71, align 4
  %58 = tail call i32 (ptr, ...) @errmsg_internal(ptr noundef nonnull @.str.5, i32 noundef %57) #7
  tail call void @errfinish(ptr noundef nonnull @.str.2, i32 noundef 4337, ptr noundef nonnull @__func__.get_nullingrels_recurse) #7
  unreachable

.thread:                                          ; preds = %tailrecurse.outer.backedge, %tailrecurse.backedge, %.lr.ph78, %3, %13, %.lr.ph75, %7
  ret void
}